target datalayout = "e-m:e-p270:32:32-p271:32:32-p272:64:64-i64:64-i128:128-f80:128-n8:16:32:64-S128"
target triple = "x86_64-pc-linux-gnu"

%struct.expert_field = type { i32, i32 }

@hf_security_1_permission_type = internal global i32 0, align 4
@hf_security_1_length = internal global i32 0, align 4
@hf_security_1_data = internal global i32 0, align 4
@hf_security_2_count = internal global i32 0, align 4
@hf_security_2_permission = internal global i32 0, align 4
@ett_security_2_permission = internal global i32 0, align 4
@ei_c2_c3_c4_format = internal global %struct.expert_field zeroinitializer, align 4
@.str.737 = private unnamed_addr constant [66 x i8] c"DOF Violation: Type.1.1: Compressed 16-bit Compression Mandatory.\00", align 1

; Function Attrs: null_pointer_is_valid sspstrong uwtable
define internal i32 @dissect_2008_16_security_1(ptr noundef %0, ptr noundef %1, ptr noundef %2, ptr noundef %3) #0 {
  %5 = alloca i32, align 4
  %6 = alloca ptr, align 8
  %7 = alloca ptr, align 8
  %8 = alloca ptr, align 8
  %9 = alloca ptr, align 8
  %10 = alloca i32, align 4
  %11 = alloca i8, align 1
  %12 = alloca i16, align 2
  %13 = alloca i32, align 4
  %14 = alloca i16, align 2
  %15 = alloca i32, align 4
  %16 = alloca ptr, align 8
  %17 = alloca i32, align 4
  %18 = alloca i32, align 4
  %19 = alloca i16, align 2
  %20 = alloca i32, align 4
  %21 = alloca ptr, align 8
  store ptr %0, ptr %6, align 8
  store ptr %1, ptr %7, align 8
  store ptr %2, ptr %8, align 8
  store ptr %3, ptr %9, align 8
  call void @llvm.lifetime.start.p0(i64 4, ptr %10) #19
  store i32 0, ptr %10, align 4
  call void @llvm.lifetime.start.p0(i64 1, ptr %11) #19
  call void @llvm.lifetime.start.p0(i64 2, ptr %12) #19
  call void @llvm.lifetime.start.p0(i64 4, ptr %13) #19
  %22 = load i32, ptr %10, align 4
  store i32 %22, ptr %13, align 4
  call void @llvm.lifetime.start.p0(i64 2, ptr %14) #19
  call void @llvm.lifetime.start.p0(i64 4, ptr %15) #19
  call void @llvm.lifetime.start.p0(i64 8, ptr %16) #19
  %23 = load ptr, ptr %6, align 8
  %24 = load i32, ptr %10, align 4
  %25 = call i32 @read_c2(ptr noundef %23, i32 noundef %24, ptr noundef %14, ptr noundef %15)
  store i32 %25, ptr %10, align 4
  %26 = load i16, ptr %14, align 2
  %27 = zext i16 %26 to i32
  %28 = srem i32 %27, 2
  %29 = icmp ne i32 %28, 0
  %30 = zext i1 %29 to i8
  store i8 %30, ptr %11, align 1
  %31 = load ptr, ptr %8, align 8
  %32 = load i32, ptr @hf_security_1_permission_type, align 4
  %33 = load ptr, ptr %6, align 8
  %34 = load i32, ptr %13, align 4
  %35 = load i32, ptr %10, align 4
  %36 = load i32, ptr %13, align 4
  %37 = sub i32 %35, %36
  %38 = load i16, ptr %14, align 2
  %39 = zext i16 %38 to i32
  %40 = call ptr @proto_tree_add_uint(ptr noundef %31, i32 noundef %32, ptr noundef %33, i32 noundef %34, i32 noundef %37, i32 noundef %39)
  store ptr %40, ptr %16, align 8
  %41 = load ptr, ptr %7, align 8
  %42 = load ptr, ptr %16, align 8
  %43 = load i16, ptr %14, align 2
  %44 = load i32, ptr %15, align 4
  call void @validate_c2(ptr noundef %41, ptr noundef %42, i16 noundef zeroext %43, i32 noundef %44)
  call void @llvm.lifetime.end.p0(i64 8, ptr %16) #19
  call void @llvm.lifetime.end.p0(i64 4, ptr %15) #19
  call void @llvm.lifetime.end.p0(i64 2, ptr %14) #19
  call void @llvm.lifetime.end.p0(i64 4, ptr %13) #19
  %45 = load i8, ptr %11, align 1, !range !9, !noundef !10
  %46 = trunc i8 %45 to i1
  br i1 %46, label %49, label %47

47:                                               ; preds = %4
  %48 = load i32, ptr %10, align 4
  store i32 %48, ptr %5, align 4
  store i32 1, ptr %17, align 4
  br label %81

49:                                               ; preds = %4
  call void @llvm.lifetime.start.p0(i64 4, ptr %18) #19
  %50 = load i32, ptr %10, align 4
  store i32 %50, ptr %18, align 4
  call void @llvm.lifetime.start.p0(i64 2, ptr %19) #19
  call void @llvm.lifetime.start.p0(i64 4, ptr %20) #19
  call void @llvm.lifetime.start.p0(i64 8, ptr %21) #19
  %51 = load ptr, ptr %6, align 8
  %52 = load i32, ptr %10, align 4
  %53 = call i32 @read_c2(ptr noundef %51, i32 noundef %52, ptr noundef %19, ptr noundef %20)
  store i32 %53, ptr %10, align 4
  %54 = load i16, ptr %19, align 2
  store i16 %54, ptr %12, align 2
  %55 = load ptr, ptr %8, align 8
  %56 = load i32, ptr @hf_security_1_length, align 4
  %57 = load ptr, ptr %6, align 8
  %58 = load i32, ptr %18, align 4
  %59 = load i32, ptr %10, align 4
  %60 = load i32, ptr %18, align 4
  %61 = sub i32 %59, %60
  %62 = load i16, ptr %19, align 2
  %63 = zext i16 %62 to i32
  %64 = call ptr @proto_tree_add_uint(ptr noundef %55, i32 noundef %56, ptr noundef %57, i32 noundef %58, i32 noundef %61, i32 noundef %63)
  store ptr %64, ptr %21, align 8
  %65 = load ptr, ptr %7, align 8
  %66 = load ptr, ptr %21, align 8
  %67 = load i16, ptr %19, align 2
  %68 = load i32, ptr %20, align 4
  call void @validate_c2(ptr noundef %65, ptr noundef %66, i16 noundef zeroext %67, i32 noundef %68)
  call void @llvm.lifetime.end.p0(i64 8, ptr %21) #19
  call void @llvm.lifetime.end.p0(i64 4, ptr %20) #19
  call void @llvm.lifetime.end.p0(i64 2, ptr %19) #19
  call void @llvm.lifetime.end.p0(i64 4, ptr %18) #19
  %69 = load ptr, ptr %8, align 8
  %70 = load i32, ptr @hf_security_1_data, align 4
  %71 = load ptr, ptr %6, align 8
  %72 = load i32, ptr %10, align 4
  %73 = load i16, ptr %12, align 2
  %74 = zext i16 %73 to i32
  %75 = call ptr @proto_tree_add_item(ptr noundef %69, i32 noundef %70, ptr noundef %71, i32 noundef %72, i32 noundef %74, i32 noundef 0)
  %76 = load i16, ptr %12, align 2
  %77 = zext i16 %76 to i32
  %78 = load i32, ptr %10, align 4
  %79 = add i32 %78, %77
  store i32 %79, ptr %10, align 4
  %80 = load i32, ptr %10, align 4
  store i32 %80, ptr %5, align 4
  store i32 1, ptr %17, align 4
  br label %81

81:                                               ; preds = %49, %47
  call void @llvm.lifetime.end.p0(i64 2, ptr %12) #19
  call void @llvm.lifetime.end.p0(i64 1, ptr %11) #19
  call void @llvm.lifetime.end.p0(i64 4, ptr %10) #19
  %82 = load i32, ptr %5, align 4
  ret i32 %82
}

; Function Attrs: null_pointer_is_valid sspstrong uwtable
define internal void @validate_c2(ptr noundef %0, ptr noundef %1, i16 noundef zeroext %2, i32 noundef %3) #0 {
  %5 = alloca ptr, align 8
  %6 = alloca ptr, align 8
  %7 = alloca i16, align 2
  %8 = alloca i32, align 4
  store ptr %0, ptr %5, align 8
  store ptr %1, ptr %6, align 8
  store i16 %2, ptr %7, align 2
  store i32 %3, ptr %8, align 4
  %9 = load i32, ptr %8, align 4
  %10 = icmp sgt i32 %9, 1
  br i1 %10, label %11, label %19

11:                                               ; preds = %4
  %12 = load i16, ptr %7, align 2
  %13 = zext i16 %12 to i32
  %14 = icmp slt i32 %13, 128
  br i1 %14, label %15, label %19

15:                                               ; preds = %11
  %16 = load ptr, ptr %5, align 8
  %17 = load ptr, ptr %6, align 8
  %18 = call ptr (ptr, ptr, ptr, ptr, ...) @expert_add_info_format(ptr noundef %16, ptr noundef %17, ptr noundef @ei_c2_c3_c4_format, ptr noundef @.str.737)
  br label %19

19:                                               ; preds = %15, %11, %4
  ret void
}

; Function Attrs: null_pointer_is_valid sspstrong uwtable
define internal i32 @read_c2(ptr noundef %0, i32 noundef %1, ptr noundef %2, ptr noundef %3) #0 {
  %5 = alloca ptr, align 8
  %6 = alloca i32, align 4
  %7 = alloca ptr, align 8
  %8 = alloca ptr, align 8
  %9 = alloca i16, align 2
  %10 = alloca i8, align 1
  store ptr %0, ptr %5, align 8
  store i32 %1, ptr %6, align 4
  store ptr %2, ptr %7, align 8
  store ptr %3, ptr %8, align 8
  call void @llvm.lifetime.start.p0(i64 2, ptr %9) #19
  store i16 0, ptr %9, align 2
  call void @llvm.lifetime.start.p0(i64 1, ptr %10) #19
  %11 = load ptr, ptr %5, align 8
  %12 = load i32, ptr %6, align 4
  %13 = add i32 %12, 1
  store i32 %13, ptr %6, align 4
  %14 = call zeroext i8 @tvb_get_uint8(ptr noundef %11, i32 noundef %12)
  store i8 %14, ptr %10, align 1
  %15 = load i8, ptr %10, align 1
  %16 = zext i8 %15 to i32
  %17 = and i32 %16, 128
  %18 = icmp ne i32 %17, 0
  br i1 %18, label %19, label %39

19:                                               ; preds = %4
  %20 = load i8, ptr %10, align 1
  %21 = zext i8 %20 to i32
  %22 = and i32 %21, 127
  %23 = trunc i32 %22 to i8
  store i8 %23, ptr %10, align 1
  %24 = load i8, ptr %10, align 1
  %25 = zext i8 %24 to i32
  %26 = shl i32 %25, 8
  %27 = load ptr, ptr %5, align 8
  %28 = load i32, ptr %6, align 4
  %29 = add i32 %28, 1
  store i32 %29, ptr %6, align 4
  %30 = call zeroext i8 @tvb_get_uint8(ptr noundef %27, i32 noundef %28)
  %31 = zext i8 %30 to i32
  %32 = or i32 %26, %31
  %33 = trunc i32 %32 to i16
  store i16 %33, ptr %9, align 2
  %34 = load ptr, ptr %8, align 8
  %35 = icmp ne ptr %34, null
  br i1 %35, label %36, label %38

36:                                               ; preds = %19
  %37 = load ptr, ptr %8, align 8
  store i32 2, ptr %37, align 4
  br label %38

38:                                               ; preds = %36, %19
  br label %47

39:                                               ; preds = %4
  %40 = load i8, ptr %10, align 1
  %41 = zext i8 %40 to i16
  store i16 %41, ptr %9, align 2
  %42 = load ptr, ptr %8, align 8
  %43 = icmp ne ptr %42, null
  br i1 %43, label %44, label %46

44:                                               ; preds = %39
  %45 = load ptr, ptr %8, align 8
  store i32 1, ptr %45, align 4
  br label %46

46:                                               ; preds = %44, %39
  br label %47

47:                                               ; preds = %46, %38
  %48 = load ptr, ptr %7, align 8
  %49 = icmp ne ptr %48, null
  br i1 %49, label %50, label %53

50:                                               ; preds = %47
  %51 = load i16, ptr %9, align 2
  %52 = load ptr, ptr %7, align 8
  store i16 %51, ptr %52, align 2
  br label %53

53:                                               ; preds = %50, %47
  %54 = load i32, ptr %6, align 4
  call void @llvm.lifetime.end.p0(i64 1, ptr %10) #19
  call void @llvm.lifetime.end.p0(i64 2, ptr %9) #19
  ret i32 %54
}

; Function Attrs: null_pointer_is_valid sspstrong uwtable
define internal i32 @dissect_2008_16_security_2(ptr noundef %0, ptr noundef %1, ptr noundef %2, ptr noundef %3) #0 {
  %5 = alloca ptr, align 8
  %6 = alloca ptr, align 8
  %7 = alloca ptr, align 8
  %8 = alloca ptr, align 8
  %9 = alloca i32, align 4
  %10 = alloca i16, align 2
  %11 = alloca i32, align 4
  %12 = alloca i16, align 2
  %13 = alloca i32, align 4
  %14 = alloca ptr, align 8
  %15 = alloca ptr, align 8
  %16 = alloca ptr, align 8
  %17 = alloca ptr, align 8
  %18 = alloca i32, align 4
  store ptr %0, ptr %5, align 8
  store ptr %1, ptr %6, align 8
  store ptr %2, ptr %7, align 8
  store ptr %3, ptr %8, align 8
  call void @llvm.lifetime.start.p0(i64 4, ptr %9) #19
  store i32 0, ptr %9, align 4
  call void @llvm.lifetime.start.p0(i64 2, ptr %10) #19
  call void @llvm.lifetime.start.p0(i64 4, ptr %11) #19
  %19 = load i32, ptr %9, align 4
  store i32 %19, ptr %11, align 4
  call void @llvm.lifetime.start.p0(i64 2, ptr %12) #19
  call void @llvm.lifetime.start.p0(i64 4, ptr %13) #19
  call void @llvm.lifetime.start.p0(i64 8, ptr %14) #19
  %20 = load ptr, ptr %5, align 8
  %21 = load i32, ptr %9, align 4
  %22 = call i32 @read_c2(ptr noundef %20, i32 noundef %21, ptr noundef %12, ptr noundef %13)
  store i32 %22, ptr %9, align 4
  %23 = load i16, ptr %12, align 2
  store i16 %23, ptr %10, align 2
  %24 = load ptr, ptr %7, align 8
  %25 = load i32, ptr @hf_security_2_count, align 4
  %26 = load ptr, ptr %5, align 8
  %27 = load i32, ptr %11, align 4
  %28 = load i32, ptr %9, align 4
  %29 = load i32, ptr %11, align 4
  %30 = sub i32 %28, %29
  %31 = load i16, ptr %12, align 2
  %32 = zext i16 %31 to i32
  %33 = call ptr @proto_tree_add_uint(ptr noundef %24, i32 noundef %25, ptr noundef %26, i32 noundef %27, i32 noundef %30, i32 noundef %32)
  store ptr %33, ptr %14, align 8
  %34 = load ptr, ptr %6, align 8
  %35 = load ptr, ptr %14, align 8
  %36 = load i16, ptr %12, align 2
  %37 = load i32, ptr %13, align 4
  call void @validate_c2(ptr noundef %34, ptr noundef %35, i16 noundef zeroext %36, i32 noundef %37)
  call void @llvm.lifetime.end.p0(i64 8, ptr %14) #19
  call void @llvm.lifetime.end.p0(i64 4, ptr %13) #19
  call void @llvm.lifetime.end.p0(i64 2, ptr %12) #19
  call void @llvm.lifetime.end.p0(i64 4, ptr %11) #19
  br label %38

38:                                               ; preds = %42, %4
  %39 = load i16, ptr %10, align 2
  %40 = add i16 %39, -1
  store i16 %40, ptr %10, align 2
  %41 = icmp ne i16 %39, 0
  br i1 %41, label %42, label %63

42:                                               ; preds = %38
  call void @llvm.lifetime.start.p0(i64 8, ptr %15) #19
  %43 = load ptr, ptr %7, align 8
  %44 = load i32, ptr @hf_security_2_permission, align 4
  %45 = load ptr, ptr %5, align 8
  %46 = load i32, ptr %9, align 4
  %47 = call ptr @proto_tree_add_item(ptr noundef %43, i32 noundef %44, ptr noundef %45, i32 noundef %46, i32 noundef -1, i32 noundef 0)
  store ptr %47, ptr %15, align 8
  call void @llvm.lifetime.start.p0(i64 8, ptr %16) #19
  %48 = load ptr, ptr %15, align 8
  %49 = load i32, ptr @ett_security_2_permission, align 4
  %50 = call ptr @proto_item_add_subtree(ptr noundef %48, i32 noundef %49)
  store ptr %50, ptr %16, align 8
  call void @llvm.lifetime.start.p0(i64 8, ptr %17) #19
  %51 = load ptr, ptr %5, align 8
  %52 = load i32, ptr %9, align 4
  %53 = call ptr @tvb_new_subset_remaining(ptr noundef %51, i32 noundef %52)
  store ptr %53, ptr %17, align 8
  call void @llvm.lifetime.start.p0(i64 4, ptr %18) #19
  %54 = load ptr, ptr %17, align 8
  %55 = load ptr, ptr %6, align 8
  %56 = load ptr, ptr %16, align 8
  %57 = call i32 @dissect_2008_16_security_1(ptr noundef %54, ptr noundef %55, ptr noundef %56, ptr noundef null)
  store i32 %57, ptr %18, align 4
  %58 = load ptr, ptr %15, align 8
  %59 = load i32, ptr %18, align 4
  call void @proto_item_set_len(ptr noundef %58, i32 noundef %59)
  %60 = load i32, ptr %18, align 4
  %61 = load i32, ptr %9, align 4
  %62 = add i32 %61, %60
  store i32 %62, ptr %9, align 4
  call void @llvm.lifetime.end.p0(i64 4, ptr %18) #19
  call void @llvm.lifetime.end.p0(i64 8, ptr %17) #19
  call void @llvm.lifetime.end.p0(i64 8, ptr %16) #19
  call void @llvm.lifetime.end.p0(i64 8, ptr %15) #19
  br label %38, !llvm.loop !68

63:                                               ; preds = %38
  %64 = load i32, ptr %9, align 4
  call void @llvm.lifetime.end.p0(i64 2, ptr %10) #19
  call void @llvm.lifetime.end.p0(i64 4, ptr %9) #19
  ret i32 %64
}