; Function Attrs: null_pointer_is_valid sspstrong uwtable
define internal noundef i32 @dissect_2008_16_security_2(ptr noundef %0, ptr noundef %1, ptr noundef %2, ptr readnone captures(none) %3) #0 {
  %5 = tail call zeroext i8 @tvb_get_uint8(ptr noundef %0, i32 noundef 0)
  %.not.i = icmp slt i8 %5, 0
  br i1 %.not.i, label %6, label %13

6:                                                ; preds = %4
  %7 = and i8 %5, 127
  %8 = zext nneg i8 %7 to i16
  %9 = shl nuw nsw i16 %8, 8
  %10 = tail call zeroext i8 @tvb_get_uint8(ptr noundef %0, i32 noundef 1)
  %11 = zext i8 %10 to i16
  %12 = or disjoint i16 %9, %11
  br label %read_c2.exit

13:                                               ; preds = %4
  %14 = zext nneg i8 %5 to i16
  br label %read_c2.exit

read_c2.exit:                                     ; preds = %6, %13
  %.sink.i = phi i32 [ 2, %6 ], [ 1, %13 ]
  %.0.ph.i = phi i16 [ %12, %6 ], [ %14, %13 ]
  %15 = load i32, ptr @hf_security_2_count, align 4
  %16 = zext nneg i16 %.0.ph.i to i32
  %17 = tail call ptr @proto_tree_add_uint(ptr noundef %2, i32 noundef %15, ptr noundef %0, i32 noundef 0, i32 noundef %.sink.i, i32 noundef %16)
  %18 = icmp samesign ult i16 %.0.ph.i, 128
  %or.cond.i = and i1 %.not.i, %18
  br i1 %or.cond.i, label %19, label %validate_c2.exit

19:                                               ; preds = %read_c2.exit
  %20 = tail call ptr (ptr, ptr, ptr, ptr, ...) @expert_add_info_format(ptr noundef %1, ptr noundef %17, ptr noundef nonnull @ei_c2_c3_c4_format, ptr noundef nonnull @.str.737)
  br label %validate_c2.exit

validate_c2.exit:                                 ; preds = %read_c2.exit, %19
  %.not28 = icmp eq i16 %.0.ph.i, 0
  br i1 %.not28, label %._crit_edge, label %.lr.ph

.lr.ph:                                           ; preds = %validate_c2.exit, %dissect_2008_16_security_1.exit
  %.030 = phi i32 [ %67, %dissect_2008_16_security_1.exit ], [ %.sink.i, %validate_c2.exit ]
  %.02429 = phi i16 [ %21, %dissect_2008_16_security_1.exit ], [ %.0.ph.i, %validate_c2.exit ]
  %21 = add nsw i16 %.02429, -1
  %22 = load i32, ptr @hf_security_2_permission, align 4
  %23 = tail call ptr @proto_tree_add_item(ptr noundef %2, i32 noundef %22, ptr noundef %0, i32 noundef %.030, i32 noundef -1, i32 noundef 0)
  %24 = load i32, ptr @ett_security_2_permission, align 4
  %25 = tail call ptr @proto_item_add_subtree(ptr noundef %23, i32 noundef %24)
  %26 = tail call ptr @tvb_new_subset_remaining(ptr noundef %0, i32 noundef %.030)
  %27 = tail call zeroext i8 @tvb_get_uint8(ptr noundef %26, i32 noundef 0)
  %.not.i.i = icmp slt i8 %27, 0
  br i1 %.not.i.i, label %28, label %35

28:                                               ; preds = %.lr.ph
  %29 = and i8 %27, 127
  %30 = zext nneg i8 %29 to i16
  %31 = shl nuw nsw i16 %30, 8
  %32 = tail call zeroext i8 @tvb_get_uint8(ptr noundef %26, i32 noundef 1)
  %33 = zext i8 %32 to i16
  %34 = or disjoint i16 %31, %33
  br label %read_c2.exit.i

35:                                               ; preds = %.lr.ph
  %36 = zext nneg i8 %27 to i16
  br label %read_c2.exit.i

read_c2.exit.i:                                   ; preds = %35, %28
  %.sink.i.i = phi i32 [ 2, %28 ], [ 1, %35 ]
  %.0.ph.i.i = phi i16 [ %34, %28 ], [ %36, %35 ]
  %37 = zext nneg i16 %.0.ph.i.i to i32
  %38 = and i32 %37, 1
  %.not.i25 = icmp eq i32 %38, 0
  %39 = load i32, ptr @hf_security_1_permission_type, align 4
  %40 = tail call ptr @proto_tree_add_uint(ptr noundef %25, i32 noundef %39, ptr noundef %26, i32 noundef 0, i32 noundef %.sink.i.i, i32 noundef %37)
  %41 = icmp samesign ult i16 %.0.ph.i.i, 128
  %or.cond.i.i = and i1 %.not.i.i, %41
  br i1 %or.cond.i.i, label %42, label %validate_c2.exit.i

42:                                               ; preds = %read_c2.exit.i
  %43 = tail call ptr (ptr, ptr, ptr, ptr, ...) @expert_add_info_format(ptr noundef %1, ptr noundef %40, ptr noundef nonnull @ei_c2_c3_c4_format, ptr noundef nonnull @.str.737)
  br label %validate_c2.exit.i

validate_c2.exit.i:                               ; preds = %42, %read_c2.exit.i
  br i1 %.not.i25, label %dissect_2008_16_security_1.exit, label %44

44:                                               ; preds = %validate_c2.exit.i
  %45 = add nuw nsw i32 %.sink.i.i, 1
  %46 = tail call zeroext i8 @tvb_get_uint8(ptr noundef %26, i32 noundef %.sink.i.i)
  %.not.i29.i = icmp slt i8 %46, 0
  br i1 %.not.i29.i, label %47, label %55

47:                                               ; preds = %44
  %48 = and i8 %46, 127
  %49 = zext nneg i8 %48 to i16
  %50 = shl nuw nsw i16 %49, 8
  %51 = add nuw nsw i32 %.sink.i.i, 2
  %52 = tail call zeroext i8 @tvb_get_uint8(ptr noundef %26, i32 noundef %45)
  %53 = zext i8 %52 to i16
  %54 = or disjoint i16 %50, %53
  br label %read_c2.exit33.i

55:                                               ; preds = %44
  %56 = zext nneg i8 %46 to i16
  br label %read_c2.exit33.i

read_c2.exit33.i:                                 ; preds = %55, %47
  %.015.ph.i31.i = phi i32 [ %51, %47 ], [ %45, %55 ]
  %.0.ph.i32.i = phi i16 [ %54, %47 ], [ %56, %55 ]
  %57 = load i32, ptr @hf_security_1_length, align 4
  %58 = sub nuw nsw i32 %.015.ph.i31.i, %.sink.i.i
  %59 = zext nneg i16 %.0.ph.i32.i to i32
  %60 = tail call ptr @proto_tree_add_uint(ptr noundef %25, i32 noundef %57, ptr noundef %26, i32 noundef %.sink.i.i, i32 noundef %58, i32 noundef %59)
  %61 = icmp samesign ult i16 %.0.ph.i32.i, 128
  %or.cond.i34.i = and i1 %.not.i29.i, %61
  br i1 %or.cond.i34.i, label %62, label %validate_c2.exit35.i

62:                                               ; preds = %read_c2.exit33.i
  %63 = tail call ptr (ptr, ptr, ptr, ptr, ...) @expert_add_info_format(ptr noundef %1, ptr noundef %60, ptr noundef nonnull @ei_c2_c3_c4_format, ptr noundef nonnull @.str.737)
  br label %validate_c2.exit35.i

validate_c2.exit35.i:                             ; preds = %62, %read_c2.exit33.i
  %64 = load i32, ptr @hf_security_1_data, align 4
  %65 = tail call ptr @proto_tree_add_item(ptr noundef %25, i32 noundef %64, ptr noundef %26, i32 noundef %.015.ph.i31.i, i32 noundef %59, i32 noundef 0)
  %66 = add nuw nsw i32 %.015.ph.i31.i, %59
  br label %dissect_2008_16_security_1.exit

dissect_2008_16_security_1.exit:                  ; preds = %validate_c2.exit.i, %validate_c2.exit35.i
  %.0.i = phi i32 [ %66, %validate_c2.exit35.i ], [ %.sink.i.i, %validate_c2.exit.i ]
  tail call void @proto_item_set_len(ptr noundef %23, i32 noundef %.0.i)
  %67 = add i32 %.0.i, %.030
  %.not = icmp eq i16 %21, 0
  br i1 %.not, label %._crit_edge, label %.lr.ph, !llvm.loop !89

._crit_edge:                                      ; preds = %dissect_2008_16_security_1.exit, %validate_c2.exit
  %.0.lcssa = phi i32 [ %.sink.i, %validate_c2.exit ], [ %67, %dissect_2008_16_security_1.exit ]
  ret i32 %.0.lcssa
}